; Function Attrs: nounwind uwtable
define ptr @l_Lean_Elab_PartialFixpoint_unfoldPredRel___lambda__5___boxed(ptr noundef %0, ptr noundef %1, ptr noundef %2, ptr noundef %3, ptr noundef %4, ptr noundef %5, ptr noundef %6, ptr noundef %7, ptr noundef %8, ptr noundef %9) #0 {
  %11 = getelementptr i8, ptr %0, i64 8
  %.val = load i64, ptr %11, align 8, !tbaa !11
  %12 = ptrtoint ptr %0 to i64
  %13 = and i64 %12, 1
  %.not = icmp eq i64 %13, 0
  br i1 %.not, label %14, label %lean_dec.exit21

14:                                               ; preds = %10
  %15 = load i32, ptr %0, align 4, !tbaa !4
  %16 = icmp sgt i32 %15, 1
  br i1 %16, label %17, label %19, !prof !14

17:                                               ; preds = %14
  %18 = add nsw i32 %15, -1
  store i32 %18, ptr %0, align 4, !tbaa !4
  br label %lean_dec.exit21

19:                                               ; preds = %14
  %.not.i = icmp eq i32 %15, 0
  br i1 %.not.i, label %lean_dec.exit21, label %20

20:                                               ; preds = %19
  tail call void @lean_dec_ref_cold(ptr noundef nonnull %0) #6
  br label %lean_dec.exit21

lean_dec.exit21:                                  ; preds = %20, %19, %17, %10
  %21 = ptrtoint ptr %1 to i64
  %22 = lshr i64 %21, 1
  %23 = trunc i64 %22 to i8
  %24 = and i64 %21, 1
  %.not30 = icmp eq i64 %24, 0
  br i1 %.not30, label %25, label %lean_dec.exit20

25:                                               ; preds = %lean_dec.exit21
  %26 = load i32, ptr %1, align 4, !tbaa !4
  %27 = icmp sgt i32 %26, 1
  br i1 %27, label %28, label %30, !prof !14

28:                                               ; preds = %25
  %29 = add nsw i32 %26, -1
  store i32 %29, ptr %1, align 4, !tbaa !4
  br label %lean_dec.exit20

30:                                               ; preds = %25
  %.not.i22 = icmp eq i32 %26, 0
  br i1 %.not.i22, label %lean_dec.exit20, label %31

31:                                               ; preds = %30
  tail call void @lean_dec_ref_cold(ptr noundef nonnull %1) #6
  br label %lean_dec.exit20

lean_dec.exit20:                                  ; preds = %31, %30, %28, %lean_dec.exit21
  %32 = ptrtoint ptr %2 to i64
  %33 = lshr i64 %32, 1
  %34 = trunc i64 %33 to i8
  %35 = and i64 %32, 1
  %.not31 = icmp eq i64 %35, 0
  br i1 %.not31, label %36, label %lean_dec.exit19

36:                                               ; preds = %lean_dec.exit20
  %37 = load i32, ptr %2, align 4, !tbaa !4
  %38 = icmp sgt i32 %37, 1
  br i1 %38, label %39, label %41, !prof !14

39:                                               ; preds = %36
  %40 = add nsw i32 %37, -1
  store i32 %40, ptr %2, align 4, !tbaa !4
  br label %lean_dec.exit19

41:                                               ; preds = %36
  %.not.i24 = icmp eq i32 %37, 0
  br i1 %.not.i24, label %lean_dec.exit19, label %42

42:                                               ; preds = %41
  tail call void @lean_dec_ref_cold(ptr noundef nonnull %2) #6
  br label %lean_dec.exit19

lean_dec.exit19:                                  ; preds = %42, %41, %39, %lean_dec.exit20
  %43 = tail call ptr @l_Lean_Elab_PartialFixpoint_unfoldPredRel___lambda__5(i64 noundef %.val, i8 noundef zeroext %23, i8 noundef zeroext %34, ptr noundef %3, ptr noundef %4, ptr noundef %5, ptr noundef %6, ptr noundef %7, ptr noundef %8, ptr noundef %9)
  %44 = ptrtoint ptr %4 to i64
  %45 = and i64 %44, 1
  %.not32 = icmp eq i64 %45, 0
  br i1 %.not32, label %46, label %lean_dec.exit18

46:                                               ; preds = %lean_dec.exit19
  %47 = load i32, ptr %4, align 4, !tbaa !4
  %48 = icmp sgt i32 %47, 1
  br i1 %48, label %49, label %51, !prof !14

49:                                               ; preds = %46
  %50 = add nsw i32 %47, -1
  store i32 %50, ptr %4, align 4, !tbaa !4
  br label %lean_dec.exit18

51:                                               ; preds = %46
  %.not.i26 = icmp eq i32 %47, 0
  br i1 %.not.i26, label %lean_dec.exit18, label %52

52:                                               ; preds = %51
  tail call void @lean_dec_ref_cold(ptr noundef nonnull %4) #6
  br label %lean_dec.exit18

lean_dec.exit18:                                  ; preds = %52, %51, %49, %lean_dec.exit19
  %53 = ptrtoint ptr %3 to i64
  %54 = and i64 %53, 1
  %.not33 = icmp eq i64 %54, 0
  br i1 %.not33, label %55, label %lean_dec.exit

55:                                               ; preds = %lean_dec.exit18
  %56 = load i32, ptr %3, align 4, !tbaa !4
  %57 = icmp sgt i32 %56, 1
  br i1 %57, label %58, label %60, !prof !14

58:                                               ; preds = %55
  %59 = add nsw i32 %56, -1
  store i32 %59, ptr %3, align 4, !tbaa !4
  br label %lean_dec.exit

60:                                               ; preds = %55
  %.not.i28 = icmp eq i32 %56, 0
  br i1 %.not.i28, label %lean_dec.exit, label %61

61:                                               ; preds = %60
  tail call void @lean_dec_ref_cold(ptr noundef nonnull %3) #6
  br label %lean_dec.exit

lean_dec.exit:                                    ; preds = %61, %60, %58, %lean_dec.exit18
  ret ptr %43
}